; Function Attrs: mustprogress nofree norecurse nosync nounwind memory(readwrite, inaccessiblemem: none) uwtable
define void @_ZN5ZXing12BinaryBitmap6invertEv(ptr nocapture noundef nonnull align 8 dereferenceable(56) %0) local_unnamed_addr #6 align 2 {
  %2 = getelementptr inbounds i8, ptr %0, i64 8
  %3 = load ptr, ptr %2, align 8
  %4 = getelementptr inbounds i8, ptr %3, i64 8
  %5 = load ptr, ptr %4, align 8
  %.not = icmp eq ptr %5, null
  br i1 %.not, label %_ZN5ZXing9BitMatrix7flipAllEv.exit, label %6

6:                                                ; preds = %1
  %7 = getelementptr inbounds i8, ptr %5, i64 8
  %8 = load ptr, ptr %7, align 8
  %9 = getelementptr inbounds i8, ptr %5, i64 16
  %10 = load ptr, ptr %9, align 8
  %.not89.i = icmp eq ptr %8, %10
  br i1 %.not89.i, label %_ZN5ZXing9BitMatrix7flipAllEv.exit, label %.lr.ph.i

.lr.ph.i:                                         ; preds = %6, %.lr.ph.i
  %.sroa.05.010.i = phi ptr [ %13, %.lr.ph.i ], [ %8, %6 ]
  %11 = load i8, ptr %.sroa.05.010.i, align 1
  %.not.i = icmp eq i8 %11, 0
  %12 = sext i1 %.not.i to i8
  store i8 %12, ptr %.sroa.05.010.i, align 1
  %13 = getelementptr inbounds i8, ptr %.sroa.05.010.i, i64 1
  %.not8.i = icmp eq ptr %13, %10
  br i1 %.not8.i, label %_ZN5ZXing9BitMatrix7flipAllEv.exit, label %.lr.ph.i

_ZN5ZXing9BitMatrix7flipAllEv.exit:               ; preds = %.lr.ph.i, %6, %1
  %14 = getelementptr inbounds i8, ptr %0, i64 16
  store i8 1, ptr %14, align 8
  ret void
}